; Function Attrs: mustprogress nofree norecurse nosync nounwind willreturn memory(argmem: read) uwtable
define dso_local noundef zeroext i1 @path_is_relative_and_below_cwd(ptr noundef readonly captures(none) %0) local_unnamed_addr #8 {
  %2 = load i8, ptr %0, align 1
  switch i8 %2, label %path_contains_parent_reference.exit.thread.fold.split [
    i8 47, label %path_contains_parent_reference.exit.thread
    i8 46, label %3
  ]

3:                                                ; preds = %1
  %4 = getelementptr inbounds nuw i8, ptr %0, i64 1
  %5 = load i8, ptr %4, align 1
  %6 = icmp eq i8 %5, 46
  br i1 %6, label %path_contains_parent_reference.exit, label %path_contains_parent_reference.exit.thread

path_contains_parent_reference.exit:              ; preds = %3
  %7 = getelementptr inbounds nuw i8, ptr %0, i64 2
  %8 = load i8, ptr %7, align 1
  %switch.selectcmp.case1.i = icmp eq i8 %8, 0
  %switch.selectcmp.case2.i = icmp eq i8 %8, 47
  %switch.selectcmp.i = or i1 %switch.selectcmp.case1.i, %switch.selectcmp.case2.i
  %cond.fr = freeze i1 %switch.selectcmp.i
  %not.cond.fr = xor i1 %cond.fr, true
  br label %path_contains_parent_reference.exit.thread

path_contains_parent_reference.exit.thread.fold.split: ; preds = %1
  br label %path_contains_parent_reference.exit.thread

path_contains_parent_reference.exit.thread:       ; preds = %path_contains_parent_reference.exit, %1, %path_contains_parent_reference.exit.thread.fold.split, %3
  %.0 = phi i1 [ false, %1 ], [ true, %3 ], [ true, %path_contains_parent_reference.exit.thread.fold.split ], [ %not.cond.fr, %path_contains_parent_reference.exit ]
  ret i1 %.0
}